target datalayout = "e-m:e-p270:32:32-p271:32:32-p272:64:64-i64:64-i128:128-f80:128-n8:16:32:64-S128"
target triple = "x86_64-pc-linux-gnu"

%struct.RepeatInfo = type { i8, i32, i32, i32, i32, i32, i32, [2 x i32], i32, i32, i32, i32, i32 }
%struct.RepeatBitmapControl = type { i64, i64 }

; Function Attrs: alwaysinline nounwind uwtable
define internal i32 @findAndClearLSB_64(ptr noundef %0) #2 {
  %2 = alloca ptr, align 8
  %3 = alloca i64, align 8
  %4 = alloca i64, align 8
  store ptr %0, ptr %2, align 8
  call void @llvm.lifetime.start.p0(i64 8, ptr %3) #7
  %5 = load ptr, ptr %2, align 8
  %6 = load i64, ptr %5, align 8
  store i64 %6, ptr %3, align 8
  call void @llvm.lifetime.start.p0(i64 8, ptr %4) #7
  %7 = load i64, ptr %3, align 8
  %8 = call { i64, i64 } asm "bsfq $1, $0\0Abtrq $0, $1\0A", "=r,=r,1,~{dirflag},~{fpsr},~{flags}"(i64 %7) #8, !srcloc !5
  %9 = extractvalue { i64, i64 } %8, 0
  %10 = extractvalue { i64, i64 } %8, 1
  store i64 %9, ptr %4, align 8
  store i64 %10, ptr %3, align 8
  %11 = load i64, ptr %3, align 8
  %12 = load ptr, ptr %2, align 8
  store i64 %11, ptr %12, align 8
  %13 = load i64, ptr %4, align 8
  %14 = trunc i64 %13 to i32
  call void @llvm.lifetime.end.p0(i64 8, ptr %4) #7
  call void @llvm.lifetime.end.p0(i64 8, ptr %3) #7
  ret i32 %14
}

; Function Attrs: nounwind uwtable
define hidden i64 @repeatNextMatchBitmap(ptr noundef %0, ptr noundef %1, i64 noundef %2) #0 {
  %4 = alloca i64, align 8
  %5 = alloca ptr, align 8
  %6 = alloca ptr, align 8
  %7 = alloca i64, align 8
  %8 = alloca ptr, align 8
  %9 = alloca i64, align 8
  %10 = alloca i64, align 8
  %11 = alloca i64, align 8
  %12 = alloca i32, align 4
  store ptr %0, ptr %5, align 8
  store ptr %1, ptr %6, align 8
  store i64 %2, ptr %7, align 8
  call void @llvm.lifetime.start.p0(i64 8, ptr %8) #7
  %13 = load ptr, ptr %6, align 8
  store ptr %13, ptr %8, align 8
  call void @llvm.lifetime.start.p0(i64 8, ptr %9) #7
  %14 = load ptr, ptr %8, align 8
  %15 = getelementptr inbounds nuw %struct.RepeatBitmapControl, ptr %14, i32 0, i32 0
  %16 = load i64, ptr %15, align 8
  store i64 %16, ptr %9, align 8
  call void @llvm.lifetime.start.p0(i64 8, ptr %10) #7
  %17 = load ptr, ptr %8, align 8
  %18 = getelementptr inbounds nuw %struct.RepeatBitmapControl, ptr %17, i32 0, i32 1
  %19 = load i64, ptr %18, align 8
  store i64 %19, ptr %10, align 8
  br label %20

20:                                               ; preds = %58, %3
  %21 = load i64, ptr %10, align 8
  %22 = icmp ne i64 %21, 0
  br i1 %22, label %23, label %59

23:                                               ; preds = %20
  call void @llvm.lifetime.start.p0(i64 8, ptr %11) #7
  %24 = load i64, ptr %9, align 8
  %25 = call i32 @findAndClearLSB_64(ptr noundef %10)
  %26 = zext i32 %25 to i64
  %27 = add i64 %24, %26
  store i64 %27, ptr %11, align 8
  %28 = load i64, ptr %7, align 8
  %29 = load i64, ptr %11, align 8
  %30 = load ptr, ptr %5, align 8
  %31 = getelementptr inbounds nuw %struct.RepeatInfo, ptr %30, i32 0, i32 1
  %32 = load i32, ptr %31, align 4
  %33 = zext i32 %32 to i64
  %34 = add i64 %29, %33
  %35 = icmp ult i64 %28, %34
  br i1 %35, label %36, label %43

36:                                               ; preds = %23
  %37 = load i64, ptr %11, align 8
  %38 = load ptr, ptr %5, align 8
  %39 = getelementptr inbounds nuw %struct.RepeatInfo, ptr %38, i32 0, i32 1
  %40 = load i32, ptr %39, align 4
  %41 = zext i32 %40 to i64
  %42 = add i64 %37, %41
  store i64 %42, ptr %4, align 8
  store i32 1, ptr %12, align 4
  br label %56

43:                                               ; preds = %23
  %44 = load i64, ptr %7, align 8
  %45 = load i64, ptr %11, align 8
  %46 = load ptr, ptr %5, align 8
  %47 = getelementptr inbounds nuw %struct.RepeatInfo, ptr %46, i32 0, i32 2
  %48 = load i32, ptr %47, align 4
  %49 = zext i32 %48 to i64
  %50 = add i64 %45, %49
  %51 = icmp ult i64 %44, %50
  br i1 %51, label %52, label %55

52:                                               ; preds = %43
  %53 = load i64, ptr %7, align 8
  %54 = add i64 %53, 1
  store i64 %54, ptr %4, align 8
  store i32 1, ptr %12, align 4
  br label %56

55:                                               ; preds = %43
  store i32 0, ptr %12, align 4
  br label %56

56:                                               ; preds = %55, %52, %36
  call void @llvm.lifetime.end.p0(i64 8, ptr %11) #7
  %57 = load i32, ptr %12, align 4
  switch i32 %57, label %60 [
    i32 0, label %58
  ]

58:                                               ; preds = %56
  br label %20

59:                                               ; preds = %20
  store i64 0, ptr %4, align 8
  store i32 1, ptr %12, align 4
  br label %60

60:                                               ; preds = %59, %56
  call void @llvm.lifetime.end.p0(i64 8, ptr %10) #7
  call void @llvm.lifetime.end.p0(i64 8, ptr %9) #7
  call void @llvm.lifetime.end.p0(i64 8, ptr %8) #7
  %61 = load i64, ptr %4, align 8
  ret i64 %61
}