; Function Attrs: nofree nounwind memory(argmem: read) uwtable
define hidden i64 @repeatNextMatchBitmap(ptr noundef readonly captures(none) %0, ptr noundef readonly captures(none) %1, i64 noundef %2) local_unnamed_addr #3 {
  %4 = load i64, ptr %1, align 8
  %5 = getelementptr inbounds nuw i8, ptr %1, i64 8
  %6 = load i64, ptr %5, align 8
  %7 = getelementptr inbounds nuw i8, ptr %0, i64 4
  %8 = getelementptr inbounds nuw i8, ptr %0, i64 8
  %9 = add nuw i64 %2, 1
  br label %10

10:                                               ; preds = %20, %3
  %.0 = phi i64 [ %6, %3 ], [ %21, %20 ]
  %.not = icmp eq i64 %.0, 0
  br i1 %.not, label %.thread, label %11

11:                                               ; preds = %10
  %12 = tail call { i64, i64 } asm "bsfq $1, $0\0Abtrq $0, $1\0A", "=r,=r,1,~{dirflag},~{fpsr},~{flags}"(i64 %.0) #11, !srcloc !5
  %13 = extractvalue { i64, i64 } %12, 0
  %14 = and i64 %13, 4294967295
  %15 = add i64 %14, %4
  %16 = load i32, ptr %7, align 4
  %17 = zext i32 %16 to i64
  %18 = add i64 %15, %17
  %19 = icmp ult i64 %2, %18
  br i1 %19, label %.thread, label %20

20:                                               ; preds = %11
  %21 = extractvalue { i64, i64 } %12, 1
  %22 = load i32, ptr %8, align 4
  %23 = zext i32 %22 to i64
  %24 = add i64 %15, %23
  %.not21 = icmp ult i64 %2, %24
  br i1 %.not21, label %.thread, label %10

.thread:                                          ; preds = %11, %10, %20
  %.2 = phi i64 [ %9, %20 ], [ 0, %10 ], [ %18, %11 ]
  ret i64 %.2
}